(dp0
S'/home/Zach/.bash_logout'
p1
S'26882b79471c25f945c970f8233d8ce29d54e9d5eedcd2884f88affa84a18f56'
p2
sS'/home/Zach/HybrIDS/.git/hooks/update.sample'
p3
S'166e4898f31cd99b1814453c9cb4f3a43fc9d425adeb225a1962a6e715596c2a'
p4
sS'/home/Zach/HybrIDS/open.py'
p5
S'd15255d1ecc5ba7a4873a126d6108a36083586aa16b80d7ebbe8553b84b437d3'
p6
sS'/home/Zach/HybrIDS/.git/info/exclude'
p7
S'6671fe83b7a07c8932ee89164d1f2793b2318058eb8b98dc5c06ee0a5a3b0ec1'
p8
sS'/home/Zach/HybrIDS/.git/objects/27/18730d9b5575dabea36c479cdcbd42bd38e3f8'
p9
S'2a614a07d1392d27035bf24506540035f011b2973ec2b70d2e9840303611e0ad'
p10
sS'/home/Zach/.pip/pip.log'
p11
S'e3739d3b0da38c7773b5da17871fa8cef3fd2521ad093f59585b31ba48749fe5'
p12
sS'/home/Zach/HybrIDS/.git/hooks/pre-push.sample'
p13
S'66a1692866b43809b30d4eb03c596b50a67518cc87ffad1f484372d7dbf98f47'
p14
sS'/home/Zach/HybrIDS/.git/objects/ce/1b1334a0d820a2d77d4adb98368171daf9d5fa'
p15
S'306de6a399f2979347435a3e19de19f46c390c56f666a57ee9cf8396776eaf4b'
p16
sS'/home/Zach/HybrIDS/.git/refs/remotes/origin/HEAD'
p17
S'cdc65e67690c4c6475174e5ec662b70655246a2f3924354778835ab3be70aa76'
p18
sS'/home/Zach/HybrIDS/.git/objects/2e/afcb15e83752ced09c7b99969bf95f3d773de3'
p19
S'f8f4abfde4dd1e92f98789b9ef5c656e9a8fd9b153cf17871f368d1f4e3dba9b'
p20
sS'/home/Zach/HybrIDS/.git/objects/6e/8359f505d75d25903c4b9e3d64df1d433d9062'
p21
S'23694f931ce7de9c267c0f4511a706545e802d730307179a5ac37f21023c075e'
p22
sS'/home/Zach/HybrIDS/.git/logs/HEAD'
p23
S'f980d06a5e90e9e2e90ad8d5a816fb503ebe175e32ce257517051294ded5594e'
p24
sS'/home/Zach/HybrIDS/.git/refs/heads/master'
p25
S'5f6a505a8bcd8ccae5bfe4496ef539688f349dfe84c2db3bfb11bd272037cc78'
p26
sS'/home/Zach/HybrIDS/.git/HEAD'
p27
S'f6f2b945f6c411b02ba3da9c7ace88dcf71b6af65ba2e0d89aa82900042b5a10'
p28
sS'/home/Zach/HybrIDS/.git/hooks/applypatch-msg.sample'
p29
S'1ad01d00c0204fe740a77b5e8b6ba90f233d30fd172985198404b461da80d816'
p30
sS'/home/Zach/HybrIDS/.git/packed-refs'
p31
S'8bfb4363fe5f5a47604cd5863c70693f3a1849bbcd340dd99ba718feba5a0e98'
p32
sS'/home/Zach/HybrIDS/.git/hooks/prepare-commit-msg.sample'
p33
S'f7e5627b5a26d0026ef50352f7393350ee58cc101f5e8337f944b57a5039968c'
p34
sS'/home/Zach/.bashrc'
p35
S'6fec775ff07e8424bbd774f8d6659dadfca37fd77ee66e2b9db92e3d045273ba'
p36
sS'/home/Zach/HybrIDS/fsc.py'
p37
S'f19ca5ef7ccf5f6617a87c01064c221dec9c283f6a8a0af73798307e025c6152'
p38
sS'/home/Zach/HybrIDS/fsc.pyc'
p39
S'fbc89952ca2a58490f45c8351812c719f0ae2551ef641c596b80c596a643005b'
p40
sS'/home/Zach/HybrIDS/.git/objects/28/2c92d535ef09e0f997d7b9e040b24cb3c231bd'
p41
S'9aeeb53bfc7aa9a48d7f350233ddd7c6c7ef7caf78b592ab8aad19a6f7f48cdb'
p42
sS'/home/Zach/HybrIDS/.git/objects/89/a83e6f581494ac8468f43615bb0cae255b95aa'
p43
S'949b8dc402da8af8cd539c5947c69d6501d59aa075415b6c231210adcad3a32e'
p44
sS'/home/Zach/HybrIDS/saver.p'
p45
S'8e452144801c40bbf1278559e870c09bfeadf68a56dbd75cc095941659b4634d'
p46
sS'/home/Zach/HybrIDS/.git/objects/1f/a6d253418739d482aa0a9e98fa63b7afc8264b'
p47
S'5946ae373919406b63aa7bffa409aaf58e45761d20a7a8ee019e29f0b0790ebe'
p48
sS'/home/Zach/HybrIDS/proj.py'
p49
S'e98b98b98e1753d4687078f0dee5a3cfedafa023e2f75b9bc85f1ec96674eb2a'
p50
sS'/home/Zach/HybrIDS/.git/objects/0c/9f34a9e067f694dd4b58a008a209c851e90227'
p51
S'7d6b81459c55a7ca3a45dc9d71fae0a4b2bc3a0888b815de56c916138d9694bb'
p52
sS'/home/Zach/HybrIDS/.git/objects/48/e84444d027daa8a8163f86910fadf2aa6ce729'
p53
S'72c23c0c8d1cebfa3d4bb5d88a8814b3fec442fcf8fa34af7c43a8b1cbe8957d'
p54
sS'/home/Zach/HybrIDS/.git/config'
p55
S'a08f17bb31d675d7b3a0d3116e6f74540eacbc31da6612b900c9b0cdf7f5812e'
p56
sS'/home/Zach/HybrIDS/.git/index'
p57
S'8f310199d56a2ac4b8d7af740bb1de5439d3b18cfa29d7aed4f580e19337736b'
p58
sS'/home/Zach/HybrIDS/.git/logs/refs/heads/master'
p59
S'f980d06a5e90e9e2e90ad8d5a816fb503ebe175e32ce257517051294ded5594e'
p60
sS'/home/Zach/HybrIDS/.git/objects/11/eaa0d769fd86d129590309833005a5c0f9db2c'
p61
S'605e9ce734a4bdd6e799b4563d1174a8f4ace13010598b3e65bf2ce90a4e67b5'
p62
sS'/home/Zach/HybrIDS/.git/hooks/post-update.sample'
p63
S'81765af2daef323061dcbc5e61fc16481cb74b3bac9ad8a174b186523586f6c5'
p64
sS'/home/Zach/HybrIDS/.git/hooks/pre-applypatch.sample'
p65
S'a5e12040c14ae7414a3aef50f864b485609c0b75e8fc7dbc63a0a948610f557c'
p66
sS'/home/Zach/HybrIDS/.git/objects/c4/5e31bc047db2a0358e0670dc892a7f034f4c57'
p67
S'724722ab3c3fc05845b96e47f014eedf51e8a5e54f3347c753d81f47618d78e8'
p68
sS'/home/Zach/HybrIDS/.git/objects/0d/36c730dabc24c6d1c67877f8c1b6d1dbb37543'
p69
S'dd5e61378daf70388c177cde57571ff7a2f1fd3f4873d9232c291020584064ab'
p70
sS'/home/Zach/HybrIDS/.git/objects/9f/3f80eb541ad6f7c5b8fa482db5e5035935de67'
p71
S'4922823254f92849660fca27447207052fba6745bd1fbfe8dad37666c56b1362'
p72
sS'/home/Zach/HybrIDS/README.md'
p73
S'46ad76315925b7d5c0c309aacf478e304a84440fae5b08f4a74aa07d74f09141'
p74
sS'/home/Zach/HybrIDS/.git/objects/c5/ac15a73b9de5924698f5378904f37fc1ec9022'
p75
S'eaac99c6571db9bc55effce31d5fdc7de85756b589f243b46ec871474996ab7a'
p76
sS'/home/Zach/HybrIDS/.git/hooks/pre-rebase.sample'
p77
S'14b57168a2e847946ee1291e617cf6a0d8598387ba404565f1b18cc4c7f15651'
p78
sS'/home/Zach/HybrIDS/.git/logs/refs/remotes/origin/HEAD'
p79
S'f980d06a5e90e9e2e90ad8d5a816fb503ebe175e32ce257517051294ded5594e'
p80
sS'/home/Zach/HybrIDS/.git/objects/fa/2b44788fceb452915b9d611dc56434f7a15b78'
p81
S'551073fc420fbd475da4edfc109007204b567ba2ffee96517638f9bb4d3ee55b'
p82
sS'/home/Zach/HybrIDS/.git/description'
p83
S'85ab6c163d43a17ea9cf7788308bca1466f1b0a8d1cc92e26e9bf63da4062aee'
p84
sS'/home/Zach/HybrIDS/.git/objects/26/a975c41a0779a5a1ef1ccaf8254197ef7c17b9'
p85
S'3753ac7f971fc6e3457668a17d83ab186f4666e49afba74f35a7c1e2addbdab3'
p86
sS'/home/Zach/.selected_editor'
p87
S'4f7173126a9c2fba6a831abf30613d7c0a91b48dffcb3986341b9e181f4cebbb'
p88
sS'/home/Zach/.viminfo'
p89
S'6eb4f0d24c6834614b1882634b71ab464805c604a20bac3e8aa45a85ae1c385e'
p90
sS'/home/Zach/HybrIDS/.git/hooks/commit-msg.sample'
p91
S'1f74d5e9292979b573ebd59741d46cb93ff391acdd083d340b94370753d92437'
p92
sS'/home/Zach/.profile'
p93
S'86512cad76131783f5dae4346ddc3fb39f6f7c0f74b3039bff70ca4015ade034'
p94
sS'/home/Zach/HybrIDS/.git/objects/0b/a94eda33d9f9199702b4c08c4d0195441fe9f5'
p95
S'3344668d66fa6141eba4aad306d4777620b4c4e0f6f36b893fafc377b822f348'
p96
sS'/home/Zach/HybrIDS/.git/hooks/pre-commit.sample'
p97
S'12c723235131f1c5576c652ac2a0a007f261a93c0ddc445b1dcee6cd98e30788'
p98
sS'/home/Zach/HybrIDS/.git/objects/7d/3119664d0ab5cc670d257611c235f55ad8ea6c'
p99
S'41ab35afa57cd6f0df929d51ea8d671a1ef609bb3d55b59cd60de2f5cf9e394c'
p100
s.